#include <math.h>
#include <stdio.h>
#include <stdlib.h>
#include <string.h>
#define LEN 100
#define ASCII 100
#define MAX_N 100
#define MAX_N 100
#define L 100
#define MAX 100
#define ASC 100
#define null 0
#define Len 100
#define M 100
#define SUM 100
#define NUMBER 100
#define SIZE 100
#define N 100
#define Max 100
#define X 100
#define Y 100
#define A 100
#define MAXN 100
#define MAXSIZE 100


void main()
{
	int n,a[MAX];
	int *p;
	scanf("%d",&n);
	for(p=&a[0];p<&a[0]+n;p++)
		scanf("%d",p);
	
	for(p=&a[0]+n-1;p>=&a[0];p--){
		if(p==&a[0]+n-1)
			printf("%d",*p);
		else
			printf(" %d",*p);
	}
	printf("\n");
}
