; ModuleID = 'source-C-CXX/46/2860.c'
source_filename = "source-C-CXX/46/2860.c"
target datalayout = "e-m:e-p270:32:32-p271:32:32-p272:64:64-i64:64-f80:128-n8:16:32:64-S128"
target triple = "x86_64-pc-linux-gnu"

@.str = private unnamed_addr constant [3 x i8] c"%d\00", align 1
@.str.1 = private unnamed_addr constant [4 x i8] c" %d\00", align 1

; Function Attrs: nofree nounwind sspstrong uwtable
define dso_local void @main() local_unnamed_addr #0 {
  %1 = alloca i32, align 4
  %2 = alloca [100 x i32], align 16
  %3 = bitcast i32* %1 to i8*
  call void @llvm.lifetime.start.p0i8(i64 4, i8* nonnull %3) #4
  %4 = bitcast [100 x i32]* %2 to i8*
  call void @llvm.lifetime.start.p0i8(i64 400, i8* nonnull %4) #4
  %5 = call i32 (i8*, ...) @__isoc99_scanf(i8* getelementptr inbounds ([3 x i8], [3 x i8]* @.str, i64 0, i64 0), i32* nonnull %1)
  %6 = getelementptr inbounds [100 x i32], [100 x i32]* %2, i64 0, i64 0
  %7 = load i32, i32* %1, align 4, !tbaa !5
  %8 = sext i32 %7 to i64
  %9 = getelementptr inbounds [100 x i32], [100 x i32]* %2, i64 0, i64 %8
  %10 = icmp sgt i32 %7, 0
  br i1 %10, label %25, label %11

11:                                               ; preds = %25, %0
  %12 = phi i32 [ %7, %0 ], [ %29, %25 ]
  %13 = phi i32* [ %9, %0 ], [ %31, %25 ]
  %14 = getelementptr inbounds i32, i32* %13, i64 -1
  %15 = icmp ult i32* %14, %6
  br i1 %15, label %45, label %16

16:                                               ; preds = %11
  %17 = sext i32 %12 to i64
  %18 = getelementptr inbounds [100 x i32], [100 x i32]* %2, i64 0, i64 %17
  %19 = icmp eq i32* %13, %18
  %20 = load i32, i32* %14, align 4, !tbaa !5
  %21 = select i1 %19, i8* getelementptr inbounds ([3 x i8], [3 x i8]* @.str, i64 0, i64 0), i8* getelementptr inbounds ([4 x i8], [4 x i8]* @.str.1, i64 0, i64 0)
  %22 = call i32 (i8*, ...) @printf(i8* nonnull dereferenceable(1) %21, i32 %20)
  %23 = getelementptr inbounds i32, i32* %13, i64 -2
  %24 = icmp ult i32* %23, %6
  br i1 %24, label %45, label %33, !llvm.loop !9

25:                                               ; preds = %0, %25
  %26 = phi i32* [ %28, %25 ], [ %6, %0 ]
  %27 = call i32 (i8*, ...) @__isoc99_scanf(i8* getelementptr inbounds ([3 x i8], [3 x i8]* @.str, i64 0, i64 0), i32* nonnull %26)
  %28 = getelementptr inbounds i32, i32* %26, i64 1
  %29 = load i32, i32* %1, align 4, !tbaa !5
  %30 = sext i32 %29 to i64
  %31 = getelementptr inbounds [100 x i32], [100 x i32]* %2, i64 0, i64 %30
  %32 = icmp ult i32* %28, %31
  br i1 %32, label %25, label %11, !llvm.loop !11

33:                                               ; preds = %16, %33
  %34 = phi i32* [ %43, %33 ], [ %23, %16 ]
  %35 = phi i32* [ %34, %33 ], [ %14, %16 ]
  %36 = load i32, i32* %1, align 4, !tbaa !5
  %37 = sext i32 %36 to i64
  %38 = getelementptr inbounds [100 x i32], [100 x i32]* %2, i64 0, i64 %37
  %39 = icmp eq i32* %35, %38
  %40 = load i32, i32* %34, align 4, !tbaa !5
  %41 = select i1 %39, i8* getelementptr inbounds ([3 x i8], [3 x i8]* @.str, i64 0, i64 0), i8* getelementptr inbounds ([4 x i8], [4 x i8]* @.str.1, i64 0, i64 0)
  %42 = call i32 (i8*, ...) @printf(i8* nonnull dereferenceable(1) %41, i32 %40)
  %43 = getelementptr inbounds i32, i32* %34, i64 -1
  %44 = icmp ult i32* %43, %6
  br i1 %44, label %45, label %33, !llvm.loop !9

45:                                               ; preds = %33, %16, %11
  %46 = call i32 @putchar(i32 10)
  call void @llvm.lifetime.end.p0i8(i64 400, i8* nonnull %4) #4
  call void @llvm.lifetime.end.p0i8(i64 4, i8* nonnull %3) #4
  ret void
}

; Function Attrs: argmemonly mustprogress nofree nosync nounwind willreturn
declare void @llvm.lifetime.start.p0i8(i64 immarg, i8* nocapture) #1

; Function Attrs: nofree nounwind
declare noundef i32 @__isoc99_scanf(i8* nocapture noundef readonly, ...) local_unnamed_addr #2

; Function Attrs: nofree nounwind
declare noundef i32 @printf(i8* nocapture noundef readonly, ...) local_unnamed_addr #2

; Function Attrs: argmemonly mustprogress nofree nosync nounwind willreturn
declare void @llvm.lifetime.end.p0i8(i64 immarg, i8* nocapture) #1

; Function Attrs: nofree nounwind
declare noundef i32 @putchar(i32 noundef) local_unnamed_addr #3


!llvm.module.flags = !{!0, !1, !2, !3}
!llvm.ident = !{!4}

!0 = !{i32 1, !"wchar_size", i32 4}
!1 = !{i32 7, !"PIC Level", i32 2}
!2 = !{i32 7, !"PIE Level", i32 2}
!3 = !{i32 7, !"uwtable", i32 1}
!4 = !{!"clang version 13.0.0"}
!5 = !{!6, !6, i64 0}
!6 = !{!"int", !7, i64 0}
!7 = !{!"omnipotent char", !8, i64 0}
!8 = !{!"Simple C/C++ TBAA"}
!9 = distinct !{!9, !10}
!10 = !{!"llvm.loop.mustprogress"}
!11 = distinct !{!11, !10}
